; Function Attrs: nounwind uwtable
define ptr @l_Lean_Elab_WF_preDefsFromUnaryNonRec(ptr noundef %0, ptr noundef %1, ptr noundef %2, ptr noundef %3, ptr noundef %4, ptr noundef %5, ptr noundef %6, ptr noundef %7, ptr noundef %8) local_unnamed_addr #0 {
  %10 = getelementptr inbounds nuw i8, ptr %3, i64 16
  %11 = load ptr, ptr %10, align 8, !tbaa !10
  %12 = ptrtoint ptr %11 to i64
  %13 = and i64 %12, 1
  %.not = icmp eq i64 %13, 0
  br i1 %.not, label %14, label %lean_inc.exit35

14:                                               ; preds = %9
  %.val.i = load i32, ptr %11, align 4, !tbaa !4
  %15 = icmp sgt i32 %.val.i, 0
  br i1 %15, label %16, label %18, !prof !9

16:                                               ; preds = %14
  %17 = add nuw i32 %.val.i, 1
  store i32 %17, ptr %11, align 4, !tbaa !4
  br label %lean_inc.exit35

18:                                               ; preds = %14
  %.not.i39 = icmp eq i32 %.val.i, 0
  br i1 %.not.i39, label %lean_inc.exit35, label %19

19:                                               ; preds = %18
  tail call void @lean_inc_ref_cold(ptr noundef nonnull %11) #5
  br label %lean_inc.exit35

lean_inc.exit35:                                  ; preds = %19, %18, %16, %9
  %20 = tail call ptr @l_List_mapTR_loop___at_Lean_mkConstWithLevelParams___spec__1(ptr noundef %11, ptr noundef nonnull inttoptr (i64 1 to ptr)) #5
  tail call void @lean_inc_heartbeat() #5
  %21 = tail call noalias ptr @mi_malloc_small(i64 noundef 64) #5
  %22 = icmp eq ptr %21, null
  br i1 %22, label %23, label %lean_alloc_closure.exit

23:                                               ; preds = %lean_inc.exit35
  tail call void @lean_internal_panic_out_of_memory() #6
  unreachable

lean_alloc_closure.exit:                          ; preds = %lean_inc.exit35
  %24 = getelementptr inbounds nuw i8, ptr %21, i64 4
  store i32 1, ptr %21, align 4, !tbaa !4
  store i32 -184549312, ptr %24, align 4
  %25 = getelementptr inbounds nuw i8, ptr %21, i64 8
  store ptr @l_Lean_Elab_WF_preDefsFromUnaryNonRec___lambda__1___boxed, ptr %25, align 8, !tbaa !10
  %26 = getelementptr inbounds nuw i8, ptr %21, i64 16
  store i16 10, ptr %26, align 8, !tbaa !15
  %27 = getelementptr inbounds nuw i8, ptr %21, i64 18
  store i16 5, ptr %27, align 2, !tbaa !15
  %28 = getelementptr inbounds nuw i8, ptr %21, i64 24
  store ptr %3, ptr %28, align 8, !tbaa !10
  %29 = getelementptr inbounds nuw i8, ptr %21, i64 32
  store ptr %2, ptr %29, align 8, !tbaa !10
  %30 = getelementptr inbounds nuw i8, ptr %21, i64 40
  store ptr %0, ptr %30, align 8, !tbaa !10
  %31 = getelementptr inbounds nuw i8, ptr %21, i64 48
  store ptr %1, ptr %31, align 8, !tbaa !10
  %32 = getelementptr inbounds nuw i8, ptr %21, i64 56
  store ptr %20, ptr %32, align 8, !tbaa !10
  %33 = tail call ptr @lean_st_ref_get(ptr noundef %7, ptr noundef %8) #5
  %34 = getelementptr inbounds nuw i8, ptr %33, i64 8
  %35 = load ptr, ptr %34, align 8, !tbaa !10
  %36 = ptrtoint ptr %35 to i64
  %37 = and i64 %36, 1
  %.not49 = icmp eq i64 %37, 0
  br i1 %.not49, label %38, label %lean_inc.exit34

38:                                               ; preds = %lean_alloc_closure.exit
  %.val.i40 = load i32, ptr %35, align 4, !tbaa !4
  %39 = icmp sgt i32 %.val.i40, 0
  br i1 %39, label %40, label %42, !prof !9

40:                                               ; preds = %38
  %41 = add nuw i32 %.val.i40, 1
  store i32 %41, ptr %35, align 4, !tbaa !4
  br label %lean_inc.exit34

42:                                               ; preds = %38
  %.not.i41 = icmp eq i32 %.val.i40, 0
  br i1 %.not.i41, label %lean_inc.exit34, label %43

43:                                               ; preds = %42
  tail call void @lean_inc_ref_cold(ptr noundef nonnull %35) #5
  br label %lean_inc.exit34

lean_inc.exit34:                                  ; preds = %43, %42, %40, %lean_alloc_closure.exit
  %44 = getelementptr inbounds nuw i8, ptr %33, i64 16
  %45 = load ptr, ptr %44, align 8, !tbaa !10
  %46 = ptrtoint ptr %45 to i64
  %47 = and i64 %46, 1
  %.not50 = icmp eq i64 %47, 0
  br i1 %.not50, label %48, label %lean_inc.exit33

48:                                               ; preds = %lean_inc.exit34
  %.val.i43 = load i32, ptr %45, align 4, !tbaa !4
  %49 = icmp sgt i32 %.val.i43, 0
  br i1 %49, label %50, label %52, !prof !9

50:                                               ; preds = %48
  %51 = add nuw i32 %.val.i43, 1
  store i32 %51, ptr %45, align 4, !tbaa !4
  br label %lean_inc.exit33

52:                                               ; preds = %48
  %.not.i44 = icmp eq i32 %.val.i43, 0
  br i1 %.not.i44, label %lean_inc.exit33, label %53

53:                                               ; preds = %52
  tail call void @lean_inc_ref_cold(ptr noundef nonnull %45) #5
  br label %lean_inc.exit33

lean_inc.exit33:                                  ; preds = %53, %52, %50, %lean_inc.exit34
  %54 = ptrtoint ptr %33 to i64
  %55 = and i64 %54, 1
  %.not51 = icmp eq i64 %55, 0
  br i1 %.not51, label %56, label %lean_dec.exit36

56:                                               ; preds = %lean_inc.exit33
  %57 = load i32, ptr %33, align 4, !tbaa !4
  %58 = icmp sgt i32 %57, 1
  br i1 %58, label %59, label %61, !prof !9

59:                                               ; preds = %56
  %60 = add nsw i32 %57, -1
  store i32 %60, ptr %33, align 4, !tbaa !4
  br label %lean_dec.exit36

61:                                               ; preds = %56
  %.not.i = icmp eq i32 %57, 0
  br i1 %.not.i, label %lean_dec.exit36, label %62

62:                                               ; preds = %61
  tail call void @lean_dec_ref_cold(ptr noundef nonnull %33) #5
  br label %lean_dec.exit36

lean_dec.exit36:                                  ; preds = %62, %61, %59, %lean_inc.exit33
  %63 = getelementptr inbounds nuw i8, ptr %35, i64 8
  %64 = load ptr, ptr %63, align 8, !tbaa !10
  %65 = ptrtoint ptr %64 to i64
  %66 = and i64 %65, 1
  %.not52 = icmp eq i64 %66, 0
  br i1 %.not52, label %67, label %lean_inc.exit

67:                                               ; preds = %lean_dec.exit36
  %.val.i46 = load i32, ptr %64, align 4, !tbaa !4
  %68 = icmp sgt i32 %.val.i46, 0
  br i1 %68, label %69, label %71, !prof !9

69:                                               ; preds = %67
  %70 = add nuw i32 %.val.i46, 1
  store i32 %70, ptr %64, align 4, !tbaa !4
  br label %lean_inc.exit

71:                                               ; preds = %67
  %.not.i47 = icmp eq i32 %.val.i46, 0
  br i1 %.not.i47, label %lean_inc.exit, label %72

72:                                               ; preds = %71
  tail call void @lean_inc_ref_cold(ptr noundef nonnull %64) #5
  br label %lean_inc.exit

lean_inc.exit:                                    ; preds = %72, %71, %69, %lean_dec.exit36
  br i1 %.not49, label %73, label %lean_dec.exit

73:                                               ; preds = %lean_inc.exit
  %74 = load i32, ptr %35, align 4, !tbaa !4
  %75 = icmp sgt i32 %74, 1
  br i1 %75, label %76, label %78, !prof !9

76:                                               ; preds = %73
  %77 = add nsw i32 %74, -1
  store i32 %77, ptr %35, align 4, !tbaa !4
  br label %lean_dec.exit

78:                                               ; preds = %73
  %.not.i37 = icmp eq i32 %74, 0
  br i1 %.not.i37, label %lean_dec.exit, label %79

79:                                               ; preds = %78
  tail call void @lean_dec_ref_cold(ptr noundef nonnull %35) #5
  br label %lean_dec.exit

lean_dec.exit:                                    ; preds = %79, %78, %76, %lean_inc.exit
  %80 = tail call ptr @l_Lean_Environment_unlockAsync(ptr noundef %64) #5
  %81 = tail call ptr @l_Lean_withEnv___at_Lean_Elab_WF_preDefsFromUnaryNonRec___spec__2(ptr noundef %80, ptr noundef nonnull %21, ptr noundef %4, ptr noundef %5, ptr noundef %6, ptr noundef %7, ptr noundef %45)
  ret ptr %81
}